Certificate:
    Data:
        Version: 3 (0x2)
        Serial Number: 137 (0x89)
        Signature Algorithm: sha1WithRSAEncryption
        Issuer: C=DE, ST=Eastern Germany, L=Berlin, O=Foerderverein Freie Netzwerke e.V., OU=Freifunk, CN=77.87.48.10/emailAddress=sven-ola@gmx.de
        Validity
            Not Before: Mar  6 17:10:58 2014 GMT
            Not After : Mar  3 17:10:58 2024 GMT
        Subject: C=DE, ST=Eastern Germany, L=Berlin, O=Foerderverein Freie Netzwerke e.V., CN=freifunk_dk0tu/emailAddress=dl7bst@bastla.net
        Subject Public Key Info:
            Public Key Algorithm: rsaEncryption
            RSA Public Key: (1024 bit)
                Modulus (1024 bit):
                    00:ea:3b:13:91:78:ff:63:e9:24:90:6d:46:ba:67:
                    0f:a4:1b:27:bd:12:77:96:77:6c:4c:92:8f:2e:5c:
                    f5:57:8a:38:ca:db:62:5b:79:18:6c:92:66:53:2f:
                    40:9e:0a:ac:ef:7b:27:18:49:37:d7:eb:ab:dc:aa:
                    2c:4c:e4:38:98:c9:b6:76:0b:6f:3b:06:dc:c5:3a:
                    39:c3:cd:45:91:66:ff:c0:65:55:59:55:d8:4f:bd:
                    bf:04:5b:af:ba:97:db:ee:6b:32:f4:5f:83:c0:01:
                    27:81:5b:65:18:41:e1:0a:af:d7:57:b5:dd:d9:b6:
                    e7:55:b1:a1:e2:8b:e6:39:8f
                Exponent: 65537 (0x10001)
        X509v3 extensions:
            X509v3 Basic Constraints: 
                CA:FALSE
            Netscape Comment: 
                Easy-RSA Generated Certificate
            X509v3 Subject Key Identifier: 
                E0:AB:94:83:1F:7A:84:A0:34:99:52:B0:D9:E1:1C:3F:AA:F4:EB:B0
            X509v3 Authority Key Identifier: 
                keyid:02:42:CC:B5:53:53:5B:0E:58:6F:DE:B2:AC:11:63:C6:F6:E0:A7:0D
                DirName:/C=DE/ST=Eastern Germany/L=Berlin/O=Foerderverein Freie Netzwerke e.V./OU=Freifunk/CN=77.87.48.10/emailAddress=sven-ola@gmx.de
                serial:C4:EF:35:1C:C0:2E:CE:F2

            X509v3 Extended Key Usage: 
                TLS Web Client Authentication
            X509v3 Key Usage: 
                Digital Signature
    Signature Algorithm: sha1WithRSAEncryption
        48:18:74:eb:be:60:11:6f:c1:fc:d1:dc:3e:11:7e:b4:0b:24:
        ef:49:3b:50:8c:85:1e:df:f0:d4:62:ba:81:be:20:e6:ab:00:
        92:f6:31:55:55:8f:71:fd:7a:5b:02:f8:c9:d5:a7:9d:cc:7c:
        24:2b:47:7a:ca:55:e3:5d:5b:f7:16:a4:c6:53:1a:b4:fc:1c:
        6b:7d:b6:67:d4:bf:d8:2b:d5:d5:50:b4:8a:d9:ba:82:1f:29:
        31:d1:db:be:8e:16:bc:a3:50:87:6f:9f:b6:21:79:68:1c:c6:
        a8:d5:86:59:57:3c:98:9f:08:05:3c:8f:41:3d:47:01:93:d6:
        a3:c2
-----BEGIN CERTIFICATE-----
MIIELjCCA5egAwIBAgICAIkwDQYJKoZIhvcNAQEFBQAwga4xCzAJBgNVBAYTAkRF
MRgwFgYDVQQIEw9FYXN0ZXJuIEdlcm1hbnkxDzANBgNVBAcTBkJlcmxpbjErMCkG
A1UEChMiRm9lcmRlcnZlcmVpbiBGcmVpZSBOZXR6d2Vya2UgZS5WLjERMA8GA1UE
CxMIRnJlaWZ1bmsxFDASBgNVBAMTCzc3Ljg3LjQ4LjEwMR4wHAYJKoZIhvcNAQkB
Fg9zdmVuLW9sYUBnbXguZGUwHhcNMTQwMzA2MTcxMDU4WhcNMjQwMzAzMTcxMDU4
WjCBoDELMAkGA1UEBhMCREUxGDAWBgNVBAgTD0Vhc3Rlcm4gR2VybWFueTEPMA0G
A1UEBxMGQmVybGluMSswKQYDVQQKEyJGb2VyZGVydmVyZWluIEZyZWllIE5ldHp3
ZXJrZSBlLlYuMRcwFQYDVQQDFA5mcmVpZnVua19kazB0dTEgMB4GCSqGSIb3DQEJ
ARYRZGw3YnN0QGJhc3RsYS5uZXQwgZ8wDQYJKoZIhvcNAQEBBQADgY0AMIGJAoGB
AOo7E5F4/2PpJJBtRrpnD6QbJ70Sd5Z3bEySjy5c9VeKOMrbYlt5GGySZlMvQJ4K
rO97JxhJN9frq9yqLEzkOJjJtnYLbzsG3MU6OcPNRZFm/8BlVVlV2E+9vwRbr7qX
2+5rMvRfg8ABJ4FbZRhB4Qqv11e13dm251WxoeKL5jmPAgMBAAGjggFlMIIBYTAJ
BgNVHRMEAjAAMC0GCWCGSAGG+EIBDQQgFh5FYXN5LVJTQSBHZW5lcmF0ZWQgQ2Vy
dGlmaWNhdGUwHQYDVR0OBBYEFOCrlIMfeoSgNJlSsNnhHD+q9OuwMIHjBgNVHSME
gdswgdiAFAJCzLVTU1sOWG/esqwRY8b24KcNoYG0pIGxMIGuMQswCQYDVQQGEwJE
RTEYMBYGA1UECBMPRWFzdGVybiBHZXJtYW55MQ8wDQYDVQQHEwZCZXJsaW4xKzAp
BgNVBAoTIkZvZXJkZXJ2ZXJlaW4gRnJlaWUgTmV0endlcmtlIGUuVi4xETAPBgNV
BAsTCEZyZWlmdW5rMRQwEgYDVQQDEws3Ny44Ny40OC4xMDEeMBwGCSqGSIb3DQEJ
ARYPc3Zlbi1vbGFAZ214LmRlggkAxO81HMAuzvIwEwYDVR0lBAwwCgYIKwYBBQUH
AwIwCwYDVR0PBAQDAgeAMA0GCSqGSIb3DQEBBQUAA4GBAEgYdOu+YBFvwfzR3D4R
frQLJO9JO1CMhR7f8NRiuoG+IOarAJL2MVVVj3H9elsC+MnVp53MfCQrR3rKVeNd
W/cWpMZTGrT8HGt9tmfUv9gr1dVQtIrZuoIfKTHR276OFryjUIdvn7YheWgcxqjV
hllXPJifCAU8j0E9RwGT1qPC
-----END CERTIFICATE-----
