Certificate:
    Data:
        Version: 3 (0x2)
        Serial Number: 66 (0x42)
        Signature Algorithm: sha1WithRSAEncryption
        Issuer: C=DE, ST=East Germany, L=Berlin, O=Freifunk, OU=Individual Network Berlin e.V., CN=Freifunk CA/emailAddress=sven-ola@gmx.de
        Validity
            Not Before: Apr 22 16:35:41 2013 GMT
            Not After : Apr 20 16:35:41 2023 GMT
        Subject: C=DE, ST=East Germany, L=Berlin, O=Freifunk, OU=Individual Network Berlin e.V., CN=bbb-vpn_silbersteinstr90/emailAddress=max@posteo.de
        Subject Public Key Info:
            Public Key Algorithm: rsaEncryption
            RSA Public Key: (1024 bit)
                Modulus (1024 bit):
                    00:be:bd:db:ce:59:7e:d2:ae:99:0d:a1:08:a8:bc:
                    d5:a9:d9:b9:e7:1d:aa:98:88:f0:cd:e9:73:00:63:
                    d5:9f:e9:9c:a6:e4:82:c6:52:c2:5b:01:a0:91:a2:
                    b1:83:0e:80:5e:a1:40:33:98:75:f5:8e:ef:da:60:
                    cb:87:ef:9c:87:7a:64:4f:23:cd:3f:a4:d3:b6:69:
                    08:17:39:fa:35:c5:34:0f:d1:26:f2:09:1d:58:44:
                    97:6b:24:2d:87:4d:90:b7:25:3a:c3:42:d7:5d:5b:
                    f0:32:78:c1:1d:10:d3:f1:d2:06:b5:72:2b:88:18:
                    a2:1c:2d:7c:91:36:82:63:4d
                Exponent: 65537 (0x10001)
        X509v3 extensions:
            X509v3 Basic Constraints: 
                CA:FALSE
            Netscape Comment: 
                Easy-RSA Generated Certificate
            X509v3 Subject Key Identifier: 
                61:8C:81:FB:BB:7E:E2:1A:37:19:7B:3A:7A:5C:49:5F:23:6D:55:08
            X509v3 Authority Key Identifier: 
                keyid:50:B2:8E:6F:3B:84:11:89:39:86:41:D6:93:8C:0E:D5:B3:14:5E:13
                DirName:/C=DE/ST=East Germany/L=Berlin/O=Freifunk/OU=Individual Network Berlin e.V./CN=Freifunk CA/emailAddress=sven-ola@gmx.de
                serial:AC:18:75:EE:E7:F9:16:FF

            X509v3 Extended Key Usage: 
                TLS Web Client Authentication
            X509v3 Key Usage: 
                Digital Signature
    Signature Algorithm: sha1WithRSAEncryption
        3d:f4:4c:59:2d:9d:e8:1b:ce:17:d0:9c:b2:c4:bf:af:55:8a:
        95:7a:3b:90:39:0b:7d:24:45:2a:42:f4:d6:16:4b:17:73:15:
        e8:86:04:5f:fe:f1:6d:6a:c3:f6:e4:51:db:b4:8f:30:3a:80:
        e1:a6:cc:ac:94:60:0c:ad:93:57:cd:77:7a:09:96:fa:94:a7:
        0e:d7:7b:ce:40:f8:05:99:ec:2a:b8:77:c8:35:ce:3c:4f:5d:
        d3:1a:23:2c:e7:92:33:18:fa:6a:d5:01:46:90:5a:6d:ea:d9:
        1a:7a:3e:56:23:8e:65:a2:ec:32:ac:a7:f5:4f:34:38:65:2b:
        31:49
-----BEGIN CERTIFICATE-----
MIIEMTCCA5qgAwIBAgIBQjANBgkqhkiG9w0BAQUFADCBpzELMAkGA1UEBhMCREUx
FTATBgNVBAgTDEVhc3QgR2VybWFueTEPMA0GA1UEBxMGQmVybGluMREwDwYDVQQK
EwhGcmVpZnVuazEnMCUGA1UECxMeSW5kaXZpZHVhbCBOZXR3b3JrIEJlcmxpbiBl
LlYuMRQwEgYDVQQDEwtGcmVpZnVuayBDQTEeMBwGCSqGSIb3DQEJARYPc3Zlbi1v
bGFAZ214LmRlMB4XDTEzMDQyMjE2MzU0MVoXDTIzMDQyMDE2MzU0MVowgbIxCzAJ
BgNVBAYTAkRFMRUwEwYDVQQIEwxFYXN0IEdlcm1hbnkxDzANBgNVBAcTBkJlcmxp
bjERMA8GA1UEChMIRnJlaWZ1bmsxJzAlBgNVBAsTHkluZGl2aWR1YWwgTmV0d29y
ayBCZXJsaW4gZS5WLjEhMB8GA1UEAxQYYmJiLXZwbl9zaWxiZXJzdGVpbnN0cjkw
MRwwGgYJKoZIhvcNAQkBFg1tYXhAcG9zdGVvLmRlMIGfMA0GCSqGSIb3DQEBAQUA
A4GNADCBiQKBgQC+vdvOWX7SrpkNoQiovNWp2bnnHaqYiPDN6XMAY9Wf6Zym5ILG
UsJbAaCRorGDDoBeoUAzmHX1ju/aYMuH75yHemRPI80/pNO2aQgXOfo1xTQP0Sby
CR1YRJdrJC2HTZC3JTrDQtddW/AyeMEdENPx0ga1ciuIGKIcLXyRNoJjTQIDAQAB
o4IBXjCCAVowCQYDVR0TBAIwADAtBglghkgBhvhCAQ0EIBYeRWFzeS1SU0EgR2Vu
ZXJhdGVkIENlcnRpZmljYXRlMB0GA1UdDgQWBBRhjIH7u37iGjcZezp6XElfI21V
CDCB3AYDVR0jBIHUMIHRgBRQso5vO4QRiTmGQdaTjA7VsxReE6GBraSBqjCBpzEL
MAkGA1UEBhMCREUxFTATBgNVBAgTDEVhc3QgR2VybWFueTEPMA0GA1UEBxMGQmVy
bGluMREwDwYDVQQKEwhGcmVpZnVuazEnMCUGA1UECxMeSW5kaXZpZHVhbCBOZXR3
b3JrIEJlcmxpbiBlLlYuMRQwEgYDVQQDEwtGcmVpZnVuayBDQTEeMBwGCSqGSIb3
DQEJARYPc3Zlbi1vbGFAZ214LmRlggkArBh17uf5Fv8wEwYDVR0lBAwwCgYIKwYB
BQUHAwIwCwYDVR0PBAQDAgeAMA0GCSqGSIb3DQEBBQUAA4GBAD30TFktnegbzhfQ
nLLEv69VipV6O5A5C30kRSpC9NYWSxdzFeiGBF/+8W1qw/bkUdu0jzA6gOGmzKyU
YAytk1fNd3oJlvqUpw7Xe85A+AWZ7Cq4d8g1zjxPXdMaIyznkjMY+mrVAUaQWm3q
2Rp6PlYjjmWi7DKsp/VPNDhlKzFJ
-----END CERTIFICATE-----
